   1               		.file	"catboard.c"
   2               	__SREG__ = 0x3f
   3               	__SP_H__ = 0x3e
   4               	__SP_L__ = 0x3d
   5               	__CCP__  = 0x34
   6               	__tmp_reg__ = 0
   7               	__zero_reg__ = 1
  15               	.Ltext0:
  16               		.section	.text.init_ports,"ax",@progbits
  17               	.global	init_ports
  19               	init_ports:
  20               	.LFB6:
  21               	.LSM0:
  22               	/* prologue: function */
  23               	/* frame size = 0 */
  24               	.LSM1:
  25 0000 8AE4      		ldi r24,lo8(74)
  26 0002 84B9      		out 36-32,r24
  27 0004 80E2      		ldi r24,lo8(32)
  28 0006 87B9      		out 39-32,r24
  29 0008 84E0      		ldi r24,lo8(4)
  30 000a 8AB9      		out 42-32,r24
  31               	.LSM2:
  32 000c 8FEF      		ldi r24,lo8(-1)
  33 000e 85B9      		out 37-32,r24
  34 0010 88B9      		out 40-32,r24
  35 0012 8BB9      		out 43-32,r24
  36               	/* epilogue start */
  37               	.LSM3:
  38 0014 0895      		ret
  39               	.LFE6:
  41               		.section	.text.caps_lock_change_layer,"ax",@progbits
  42               	.global	caps_lock_change_layer
  44               	caps_lock_change_layer:
  45               	.LFB10:
  46               	.LSM4:
  47               	/* prologue: function */
  48               	/* frame size = 0 */
  49               	.LSM5:
  50 0000 8091 0000 		lds r24,keyboard_leds
  51 0004 8270      		andi r24,lo8(2)
  52 0006 8093 0000 		sts caps_lock_led,r24
  53 000a 2091 0000 		lds r18,layout
  54 000e 3091 0000 		lds r19,(layout)+1
  55               	.LSM6:
  56 0012 8823      		tst r24
  57 0014 01F0      		breq .L4
  58 0016 80E0      		ldi r24,lo8(layer1)
  59 0018 90E0      		ldi r25,hi8(layer1)
  60 001a 2817      		cp r18,r24
  61 001c 3907      		cpc r19,r25
  62 001e 01F0      		breq .L10
  63               	.LSM7:
  64 0020 2050      		subi r18,lo8(layer_fn)
  65 0022 3040      		sbci r19,hi8(layer_fn)
  66 0024 01F4      		brne .L6
  67               	.LSM8:
  68 0026 9093 0000 		sts (prev_layer)+1,r25
  69 002a 8093 0000 		sts prev_layer,r24
  70 002e 00C0      		rjmp .L7
  71               	.L6:
  72               	.LSM9:
  73 0030 9093 0000 		sts (layout)+1,r25
  74 0034 8093 0000 		sts layout,r24
  75               	.L7:
  76               	.LSM10:
  77 0038 469A      		sbi 40-32,6
  78               	.LSM11:
  79 003a 8091 0000 		lds r24,led
  80 003e 8823      		tst r24
  81 0040 01F0      		breq .L10
  82 0042 599A      		sbi 43-32,1
  83 0044 0895      		ret
  84               	.L4:
  85               	.LSM12:
  86 0046 80E0      		ldi r24,lo8(layer2)
  87 0048 90E0      		ldi r25,hi8(layer2)
  88 004a 2817      		cp r18,r24
  89 004c 3907      		cpc r19,r25
  90 004e 01F0      		breq .L10
  91               	.LSM13:
  92 0050 2050      		subi r18,lo8(layer_fn)
  93 0052 3040      		sbci r19,hi8(layer_fn)
  94 0054 01F4      		brne .L8
  95               	.LSM14:
  96 0056 9093 0000 		sts (prev_layer)+1,r25
  97 005a 8093 0000 		sts prev_layer,r24
  98 005e 00C0      		rjmp .L9
  99               	.L8:
 100               	.LSM15:
 101 0060 9093 0000 		sts (layout)+1,r25
 102 0064 8093 0000 		sts layout,r24
 103               	.L9:
 104               	.LSM16:
 105 0068 5998      		cbi 43-32,1
 106               	.LSM17:
 107 006a 8091 0000 		lds r24,led
 108 006e 8111      		cpse r24,__zero_reg__
 109 0070 4698      		cbi 40-32,6
 110               	.L10:
 111 0072 0895      		ret
 112               	.LFE10:
 114               		.section	.text.get_code,"ax",@progbits
 115               	.global	get_code
 117               	get_code:
 118               	.LFB16:
 119               	.LSM18:
 120               	.LVL0:
 121               	/* prologue: function */
 122               	/* frame size = 0 */
 123               	.LSM19:
 124 0000 8C33      		cpi r24,lo8(60)
 125 0002 00F4      		brsh .L12
 126               	.LSM20:
 127 0004 A82F      		mov r26,r24
 128 0006 B0E0      		ldi r27,lo8(0)
 129 0008 FD01      		movw r30,r26
 130 000a E050      		subi r30,lo8(-(pressed))
 131 000c F040      		sbci r31,hi8(-(pressed))
 132 000e 9081      		ld r25,Z
 133 0010 9130      		cpi r25,lo8(1)
 134 0012 01F4      		brne .L13
 135               	.LSM21:
 136 0014 A050      		subi r26,lo8(-(layer_fn))
 137 0016 B040      		sbci r27,hi8(-(layer_fn))
 138 0018 8C91      		ld r24,X
 139               	.LVL1:
 140 001a 1816      		cp __zero_reg__,r24
 141 001c 04F0      		brlt .L14
 142 001e 00C0      		rjmp .L12
 143               	.LVL2:
 144               	.L13:
 145               	.LSM22:
 146 0020 E091 0000 		lds r30,layout
 147 0024 F091 0000 		lds r31,(layout)+1
 148 0028 20E0      		ldi r18,hi8(layer_fn)
 149 002a E030      		cpi r30,lo8(layer_fn)
 150 002c F207      		cpc r31,r18
 151 002e 01F0      		breq .L15
 152 0030 9230      		cpi r25,lo8(2)
 153 0032 01F4      		brne .L15
 154               	.LSM23:
 155 0034 A050      		subi r26,lo8(-(layer1))
 156 0036 B040      		sbci r27,hi8(-(layer1))
 157 0038 8C91      		ld r24,X
 158               	.LVL3:
 159 003a 0895      		ret
 160               	.LVL4:
 161               	.L15:
 162               	.LSM24:
 163 003c E80F      		add r30,r24
 164 003e F11D      		adc r31,__zero_reg__
 165 0040 8081      		ld r24,Z
 166               	.LVL5:
 167 0042 0895      		ret
 168               	.LVL6:
 169               	.L12:
 170 0044 80E0      		ldi r24,lo8(0)
 171               	.LVL7:
 172               	.L14:
 173               	.LVL8:
 174               	.LSM25:
 175 0046 0895      		ret
 176               	.LFE16:
 178               		.section	.text.restore_leds,"ax",@progbits
 179               	.global	restore_leds
 181               	restore_leds:
 182               	.LFB17:
 183               	.LSM26:
 184               	/* prologue: function */
 185               	/* frame size = 0 */
 186               	.LSM27:
 187 0000 469A      		sbi 40-32,6
 188               	.LSM28:
 189 0002 5998      		cbi 43-32,1
 190               	.LSM29:
 191 0004 2091 0000 		lds r18,layout
 192 0008 3091 0000 		lds r19,(layout)+1
 193 000c 40E0      		ldi r20,hi8(layer1)
 194 000e 2030      		cpi r18,lo8(layer1)
 195 0010 3407      		cpc r19,r20
 196 0012 01F0      		breq .L18
 197 0014 8091 0000 		lds r24,prev_layer
 198 0018 9091 0000 		lds r25,(prev_layer)+1
 199 001c 8050      		subi r24,lo8(layer1)
 200 001e 9040      		sbci r25,hi8(layer1)
 201 0020 01F4      		brne .L19
 202               	.L18:
 203 0022 599A      		sbi 43-32,1
 204               	.L19:
 205               	.LSM30:
 206 0024 2050      		subi r18,lo8(layer2)
 207 0026 3040      		sbci r19,hi8(layer2)
 208 0028 01F0      		breq .L20
 209 002a 8091 0000 		lds r24,prev_layer
 210 002e 9091 0000 		lds r25,(prev_layer)+1
 211 0032 8050      		subi r24,lo8(layer2)
 212 0034 9040      		sbci r25,hi8(layer2)
 213 0036 01F4      		brne .L22
 214               	.L20:
 215 0038 4698      		cbi 40-32,6
 216               	.L22:
 217 003a 0895      		ret
 218               	.LFE17:
 220               		.section	.text.wait,"ax",@progbits
 221               	.global	wait
 223               	wait:
 224               	.LFB19:
 225               	.LSM31:
 226               	.LVL9:
 227               	/* prologue: function */
 228               	/* frame size = 0 */
 229               	.LSM32:
 230 0000 9091 E400 		lds r25,228
 231               	.LVL10:
 232 0004 980F      		add r25,r24
 233               	.L24:
 234               	.LSM33:
 235 0006 8091 E400 		lds r24,228
 236               	.LVL11:
 237 000a 9817      		cp r25,r24
 238 000c 01F4      		brne .L24
 239               	/* epilogue start */
 240               	.LSM34:
 241 000e 0895      		ret
 242               	.LFE19:
 244               		.section	.text.blink_leds,"ax",@progbits
 245               	.global	blink_leds
 247               	blink_leds:
 248               	.LFB18:
 249               	.LSM35:
 250               	/* prologue: function */
 251               	/* frame size = 0 */
 252               	.LSM36:
 253 0000 469A      		sbi 40-32,6
 254               	.LSM37:
 255 0002 5998      		cbi 43-32,1
 256               	.LSM38:
 257 0004 86E9      		ldi r24,lo8(150)
 258 0006 90E0      		ldi r25,hi8(150)
 259 0008 0E94 0000 		call wait
 260               	.LSM39:
 261 000c 4698      		cbi 40-32,6
 262               	.LSM40:
 263 000e 599A      		sbi 43-32,1
 264               	.LSM41:
 265 0010 84E6      		ldi r24,lo8(100)
 266 0012 90E0      		ldi r25,hi8(100)
 267 0014 0E94 0000 		call wait
 268               	.LSM42:
 269 0018 469A      		sbi 40-32,6
 270               	.LSM43:
 271 001a 5998      		cbi 43-32,1
 272               	.LSM44:
 273 001c 0E94 0000 		call restore_leds
 274               	/* epilogue start */
 275               	.LSM45:
 276 0020 0895      		ret
 277               	.LFE18:
 279               		.section	.text.send,"ax",@progbits
 280               	.global	send
 282               	send:
 283               	.LFB15:
 284               	.LSM46:
 285 0000 CF93      		push r28
 286 0002 DF93      		push r29
 287               	/* prologue: function */
 288               	/* frame size = 0 */
 289               	.LSM47:
 290 0004 C0E0      		ldi r28,lo8(0)
 291 0006 D0E0      		ldi r29,hi8(0)
 292               	.L30:
 293               	.LSM48:
 294 0008 FE01      		movw r30,r28
 295 000a E050      		subi r30,lo8(-(queue))
 296 000c F040      		sbci r31,hi8(-(queue))
 297 000e 8081      		ld r24,Z
 298 0010 0E94 0000 		call get_code
 299 0014 FE01      		movw r30,r28
 300 0016 E050      		subi r30,lo8(-(keyboard_keys))
 301 0018 F040      		sbci r31,hi8(-(keyboard_keys))
 302 001a 8083      		st Z,r24
 303 001c 2196      		adiw r28,1
 304               	.LSM49:
 305 001e C630      		cpi r28,6
 306 0020 D105      		cpc r29,__zero_reg__
 307 0022 01F4      		brne .L30
 308               	.LSM50:
 309 0024 8091 0000 		lds r24,mod_keys
 310 0028 8093 0000 		sts keyboard_modifier_keys,r24
 311               	.LSM51:
 312 002c 0E94 0000 		call usb_keyboard_send
 313               	/* epilogue start */
 314               	.LSM52:
 315 0030 DF91      		pop r29
 316 0032 CF91      		pop r28
 317 0034 0895      		ret
 318               	.LFE15:
 320               		.section	.text.repeat_tick,"ax",@progbits
 321               	.global	repeat_tick
 323               	repeat_tick:
 324               	.LFB11:
 325               	.LSM53:
 326               	/* prologue: function */
 327               	/* frame size = 0 */
 328               	.LSM54:
 329 0000 2091 0000 		lds r18,repeat_time
 330 0004 3091 0000 		lds r19,(repeat_time)+1
 331 0008 2115      		cp r18,__zero_reg__
 332 000a 3105      		cpc r19,__zero_reg__
 333 000c 01F0      		breq .L34
 334               	.LSM55:
 335 000e 8091 0000 		lds r24,release_time
 336 0012 9091 0000 		lds r25,(release_time)+1
 337 0016 9695      		lsr r25
 338 0018 8795      		ror r24
 339 001a 9695      		lsr r25
 340 001c 8795      		ror r24
 341 001e 2817      		cp r18,r24
 342 0020 3907      		cpc r19,r25
 343 0022 00F4      		brsh .L35
 344               	.LSM56:
 345 0024 2F5F      		subi r18,lo8(-(1))
 346 0026 3F4F      		sbci r19,hi8(-(1))
 347 0028 3093 0000 		sts (repeat_time)+1,r19
 348 002c 2093 0000 		sts repeat_time,r18
 349 0030 0895      		ret
 350               	.L35:
 351               	.LSM57:
 352 0032 81E0      		ldi r24,lo8(1)
 353 0034 90E0      		ldi r25,hi8(1)
 354 0036 9093 0000 		sts (repeat_time)+1,r25
 355 003a 8093 0000 		sts repeat_time,r24
 356               	.LSM58:
 357 003e 8091 0000 		lds r24,turbo_repeat
 358 0042 8823      		tst r24
 359 0044 01F4      		brne .+2
 360 0046 00C0      		rjmp .L44
 361               	.LSM59:
 362 0048 8091 0000 		lds r24,mod_keys
 363 004c 8093 0000 		sts keyboard_modifier_keys,r24
 364               	.LSM60:
 365 0050 8091 0000 		lds r24,last_key
 366 0054 0E94 0000 		call get_code
 367 0058 8093 0000 		sts keyboard_keys,r24
 368               	.LSM61:
 369 005c 0E94 0000 		call usb_keyboard_send
 370 0060 8823      		tst r24
 371 0062 01F0      		breq .+2
 372 0064 00C0      		rjmp .L44
 373               	.LSM62:
 374 0066 1092 0000 		sts keyboard_keys,__zero_reg__
 375               	.LSM63:
 376 006a 0E94 0000 		call usb_keyboard_send
 377 006e 0895      		ret
 378               	.L34:
 379               	.LSM64:
 380 0070 2091 0000 		lds r18,press_time2
 381 0074 3091 0000 		lds r19,(press_time2)+1
 382 0078 2115      		cp r18,__zero_reg__
 383 007a 3105      		cpc r19,__zero_reg__
 384 007c 01F0      		breq .L37
 385               	.LSM65:
 386 007e 4091 0000 		lds r20,press_time
 387 0082 5091 0000 		lds r21,(press_time)+1
 388 0086 8091 0000 		lds r24,pressed+39
 389 008a 8823      		tst r24
 390 008c 01F4      		brne .L38
 391 008e 8EE1      		ldi r24,lo8(30)
 392 0090 90E0      		ldi r25,hi8(30)
 393 0092 00C0      		rjmp .L39
 394               	.L38:
 395 0094 85E0      		ldi r24,lo8(5)
 396 0096 90E0      		ldi r25,hi8(5)
 397               	.L39:
 398 0098 840F      		add r24,r20
 399 009a 951F      		adc r25,r21
 400 009c 2817      		cp r18,r24
 401 009e 3907      		cpc r19,r25
 402 00a0 00F4      		brsh .L40
 403               	.LSM66:
 404 00a2 2F5F      		subi r18,lo8(-(1))
 405 00a4 3F4F      		sbci r19,hi8(-(1))
 406 00a6 3093 0000 		sts (press_time2)+1,r19
 407 00aa 2093 0000 		sts press_time2,r18
 408 00ae 0895      		ret
 409               	.L40:
 410               	.LSM67:
 411 00b0 81E0      		ldi r24,lo8(1)
 412 00b2 90E0      		ldi r25,hi8(1)
 413 00b4 9093 0000 		sts (repeat_time)+1,r25
 414 00b8 8093 0000 		sts repeat_time,r24
 415 00bc 0895      		ret
 416               	.L37:
 417               	.LSM68:
 418 00be 2091 0000 		lds r18,release_time
 419 00c2 3091 0000 		lds r19,(release_time)+1
 420 00c6 8091 0000 		lds r24,press_time
 421 00ca 9091 0000 		lds r25,(press_time)+1
 422 00ce 2115      		cp r18,__zero_reg__
 423 00d0 3105      		cpc r19,__zero_reg__
 424 00d2 01F0      		breq .L41
 425               	.LSM69:
 426 00d4 C296      		adiw r24,50
 427 00d6 2817      		cp r18,r24
 428 00d8 3907      		cpc r19,r25
 429 00da 00F4      		brsh .L42
 430               	.LSM70:
 431 00dc 2F5F      		subi r18,lo8(-(1))
 432 00de 3F4F      		sbci r19,hi8(-(1))
 433 00e0 3093 0000 		sts (release_time)+1,r19
 434 00e4 2093 0000 		sts release_time,r18
 435 00e8 0895      		ret
 436               	.L42:
 437               	.LSM71:
 438 00ea 8FEF      		ldi r24,lo8(-1)
 439 00ec 8093 0000 		sts last_key,r24
 440               	.LSM72:
 441 00f0 1092 0000 		sts (press_time)+1,__zero_reg__
 442 00f4 1092 0000 		sts press_time,__zero_reg__
 443               	.LSM73:
 444 00f8 1092 0000 		sts (press_time2)+1,__zero_reg__
 445 00fc 1092 0000 		sts press_time2,__zero_reg__
 446               	.LSM74:
 447 0100 1092 0000 		sts (release_time)+1,__zero_reg__
 448 0104 1092 0000 		sts release_time,__zero_reg__
 449 0108 0895      		ret
 450               	.L41:
 451               	.LSM75:
 452 010a 0097      		sbiw r24,0
 453 010c 01F0      		breq .L44
 454               	.LSM76:
 455 010e 8A3F      		cpi r24,250
 456 0110 9105      		cpc r25,__zero_reg__
 457 0112 00F4      		brsh .L43
 458               	.LSM77:
 459 0114 0196      		adiw r24,1
 460 0116 9093 0000 		sts (press_time)+1,r25
 461 011a 8093 0000 		sts press_time,r24
 462 011e 0895      		ret
 463               	.L43:
 464               	.LSM78:
 465 0120 1092 0000 		sts (press_time)+1,__zero_reg__
 466 0124 1092 0000 		sts press_time,__zero_reg__
 467               	.L44:
 468 0128 0895      		ret
 469               	.LFE11:
 471               		.section	.text.change_layout,"ax",@progbits
 472               	.global	change_layout
 474               	change_layout:
 475               	.LFB14:
 476               	.LSM79:
 477               	/* prologue: function */
 478               	/* frame size = 0 */
 479               	.LSM80:
 480 0000 8091 0000 		lds r24,os_mode
 481 0004 8230      		cpi r24,lo8(2)
 482 0006 01F4      		brne .L46
 483               	.LSM81:
 484 0008 88E0      		ldi r24,lo8(8)
 485 000a 8093 0000 		sts keyboard_modifier_keys,r24
 486               	.LSM82:
 487 000e 1092 0000 		sts keyboard_keys,__zero_reg__
 488               	.LSM83:
 489 0012 0E94 0000 		call usb_keyboard_send
 490 0016 84EF      		ldi r24,lo8(500)
 491 0018 91E0      		ldi r25,hi8(500)
 492               	.LVL12:
 493               	.LBB54:
 494               	.LBB55:
 495               	.LBB56:
 496               	.LBB57:
 497               	.LSM84:
 498 001a 20E9      		ldi r18,lo8(400)
 499 001c 31E0      		ldi r19,hi8(400)
 500               	.L47:
 501 001e F901      		movw r30,r18
 502               	.LVL13:
 503               	/* #APP */
 504               	 ;  105 "c:/winavr-20100110/lib/gcc/../../avr/include/util/delay_basic.h" 1
 505 0020 3197      		1: sbiw r30,1
 506 0022 01F4      		brne 1b
 507               	 ;  0 "" 2
 508               	/* #NOAPP */
 509               	.LBE57:
 510               	.LBE56:
 511               	.LSM85:
 512 0024 0197      		sbiw r24,1
 513               	.LSM86:
 514 0026 01F4      		brne .L47
 515               	.LBE55:
 516               	.LBE54:
 517               	.LSM87:
 518 0028 8CE2      		ldi r24,lo8(44)
 519               	.LVL14:
 520 002a 68E0      		ldi r22,lo8(8)
 521 002c 00C0      		rjmp .L53
 522               	.LVL15:
 523               	.L46:
 524               	.LSM88:
 525 002e 84E0      		ldi r24,lo8(4)
 526 0030 8093 0000 		sts keyboard_modifier_keys,r24
 527               	.LSM89:
 528 0034 1092 0000 		sts keyboard_keys,__zero_reg__
 529               	.LSM90:
 530 0038 0E94 0000 		call usb_keyboard_send
 531 003c 84EF      		ldi r24,lo8(500)
 532 003e 91E0      		ldi r25,hi8(500)
 533               	.LVL16:
 534               	.LBB58:
 535               	.LBB59:
 536               	.LBB60:
 537               	.LBB61:
 538               	.LSM91:
 539 0040 20E9      		ldi r18,lo8(400)
 540 0042 31E0      		ldi r19,hi8(400)
 541               	.L49:
 542 0044 F901      		movw r30,r18
 543               	.LVL17:
 544               	/* #APP */
 545               	 ;  105 "c:/winavr-20100110/lib/gcc/../../avr/include/util/delay_basic.h" 1
 546 0046 3197      		1: sbiw r30,1
 547 0048 01F4      		brne 1b
 548               	 ;  0 "" 2
 549               	/* #NOAPP */
 550               	.LBE61:
 551               	.LBE60:
 552               	.LSM92:
 553 004a 0197      		sbiw r24,1
 554               	.LSM93:
 555 004c 01F4      		brne .L49
 556               	.LBE59:
 557               	.LBE58:
 558               	.LSM94:
 559 004e 80E0      		ldi r24,lo8(0)
 560               	.LVL18:
 561 0050 66E0      		ldi r22,lo8(6)
 562               	.LVL19:
 563               	.L53:
 564 0052 0E94 0000 		call usb_keyboard_press
 565               	.LVL20:
 566 0056 0895      		ret
 567               	.LFE14:
 569               		.section	.text.key_release,"ax",@progbits
 570               	.global	key_release
 572               	key_release:
 573               	.LFB13:
 574               	.LSM95:
 575               	.LVL21:
 576 0000 0F93      		push r16
 577 0002 1F93      		push r17
 578 0004 CF93      		push r28
 579 0006 DF93      		push r29
 580               	/* prologue: function */
 581               	/* frame size = 0 */
 582 0008 082F      		mov r16,r24
 583               	.LSM96:
 584 000a C82F      		mov r28,r24
 585 000c D0E0      		ldi r29,lo8(0)
 586 000e FE01      		movw r30,r28
 587 0010 E050      		subi r30,lo8(-(pressed))
 588 0012 F040      		sbci r31,hi8(-(pressed))
 589 0014 1081      		ld r17,Z
 590               	.LVL22:
 591               	.LSM97:
 592 0016 1130      		cpi r17,lo8(1)
 593 0018 01F4      		brne .L55
 594 001a FE01      		movw r30,r28
 595 001c E050      		subi r30,lo8(-(layer_fn))
 596 001e F040      		sbci r31,hi8(-(layer_fn))
 597 0020 E081      		ld r30,Z
 598               	.LVL23:
 599 0022 00C0      		rjmp .L56
 600               	.LVL24:
 601               	.L55:
 602 0024 E091 0000 		lds r30,layout
 603 0028 F091 0000 		lds r31,(layout)+1
 604 002c EC0F      		add r30,r28
 605 002e FD1F      		adc r31,r29
 606 0030 E081      		ld r30,Z
 607               	.LVL25:
 608               	.LSM98:
 609 0032 5E9A      		sbi 43-32,6
 610               	.LSM99:
 611 0034 1630      		cpi r17,lo8(6)
 612 0036 01F4      		brne .L56
 613 0038 A091 0000 		lds r26,prev_layer
 614 003c B091 0000 		lds r27,(prev_layer)+1
 615 0040 1097      		sbiw r26,0
 616 0042 01F0      		breq .L56
 617               	.LSM100:
 618 0044 AC0F      		add r26,r28
 619 0046 BD1F      		adc r27,r29
 620 0048 EC91      		ld r30,X
 621               	.L56:
 622               	.LSM101:
 623 004a C050      		subi r28,lo8(-(pressed))
 624 004c D040      		sbci r29,hi8(-(pressed))
 625 004e 1882      		st Y,__zero_reg__
 626               	.LSM102:
 627 0050 ED36      		cpi r30,lo8(109)
 628 0052 00F4      		brsh .+2
 629 0054 00C0      		rjmp .L57
 630               	.LSM103:
 631 0056 ED37      		cpi r30,lo8(125)
 632 0058 01F0      		breq .L58
 633 005a E637      		cpi r30,lo8(118)
 634 005c 01F4      		brne .L59
 635               	.L58:
 636 005e 1330      		cpi r17,lo8(3)
 637 0060 01F0      		breq .L59
 638               	.LSM104:
 639 0062 8091 0000 		lds r24,mod_keys
 640               	.LVL26:
 641 0066 8B7F      		andi r24,lo8(-5)
 642 0068 00C0      		rjmp .L91
 643               	.LVL27:
 644               	.L59:
 645               	.LSM105:
 646 006a ED36      		cpi r30,lo8(109)
 647 006c 01F0      		breq .+2
 648 006e 00C0      		rjmp .L61
 649 0070 8091 0000 		lds r24,mod_keys
 650               	.LVL28:
 651 0074 1530      		cpi r17,lo8(5)
 652 0076 01F4      		brne .L62
 653               	.LSM106:
 654 0078 8E7F      		andi r24,lo8(-2)
 655               	.L91:
 656 007a 8093 0000 		sts mod_keys,r24
 657               	.LSM107:
 658 007e 0E94 0000 		call send
 659               	.LVL29:
 660 0082 00C0      		rjmp .L87
 661               	.LVL30:
 662               	.L62:
 663               	.LSM108:
 664 0084 8D7F      		andi r24,lo8(-3)
 665 0086 8093 0000 		sts mod_keys,r24
 666               	.LSM109:
 667 008a 0E94 0000 		call send
 668               	.LVL31:
 669               	.LSM110:
 670 008e 8091 0000 		lds r24,last_key
 671 0092 8017      		cp r24,r16
 672 0094 01F0      		breq .+2
 673 0096 00C0      		rjmp .L70
 674 0098 8091 0000 		lds r24,press_time
 675 009c 9091 0000 		lds r25,(press_time)+1
 676 00a0 0097      		sbiw r24,0
 677 00a2 01F4      		brne .+2
 678 00a4 00C0      		rjmp .L70
 679 00a6 C297      		sbiw r24,50
 680 00a8 00F0      		brlo .+2
 681 00aa 00C0      		rjmp .L70
 682 00ac 1430      		cpi r17,lo8(4)
 683 00ae 01F4      		brne .+2
 684 00b0 00C0      		rjmp .L70
 685               	.LSM111:
 686 00b2 8091 0000 		lds r24,layout
 687 00b6 9091 0000 		lds r25,(layout)+1
 688 00ba 20E0      		ldi r18,lo8(layer1)
 689 00bc 30E0      		ldi r19,hi8(layer1)
 690 00be 8217      		cp r24,r18
 691 00c0 9307      		cpc r25,r19
 692 00c2 01F4      		brne .+2
 693 00c4 00C0      		rjmp .L70
 694               	.LSM112:
 695 00c6 8050      		subi r24,lo8(layer_fn)
 696 00c8 9040      		sbci r25,hi8(layer_fn)
 697 00ca 01F4      		brne .L64
 698               	.LSM113:
 699 00cc 3093 0000 		sts (prev_layer)+1,r19
 700 00d0 2093 0000 		sts prev_layer,r18
 701 00d4 00C0      		rjmp .L65
 702               	.L64:
 703               	.LSM114:
 704 00d6 3093 0000 		sts (layout)+1,r19
 705 00da 2093 0000 		sts layout,r18
 706               	.L65:
 707               	.LSM115:
 708 00de 0E94 0000 		call change_layout
 709               	.LSM116:
 710 00e2 469A      		sbi 40-32,6
 711               	.LSM117:
 712 00e4 8091 0000 		lds r24,led
 713 00e8 8823      		tst r24
 714 00ea 01F4      		brne .+2
 715 00ec 00C0      		rjmp .L70
 716 00ee 599A      		sbi 43-32,1
 717 00f0 00C0      		rjmp .L70
 718               	.LVL32:
 719               	.L61:
 720               	.LSM118:
 721 00f2 EE36      		cpi r30,lo8(110)
 722 00f4 01F4      		brne .L66
 723               	.LSM119:
 724 00f6 8091 0000 		lds r24,mod_keys
 725               	.LVL33:
 726 00fa 8F7D      		andi r24,lo8(-33)
 727 00fc 8093 0000 		sts mod_keys,r24
 728               	.LSM120:
 729 0100 0E94 0000 		call send
 730               	.LVL34:
 731               	.LSM121:
 732 0104 8091 0000 		lds r24,last_key
 733 0108 8017      		cp r24,r16
 734 010a 01F0      		breq .+2
 735 010c 00C0      		rjmp .L70
 736 010e 8091 0000 		lds r24,press_time
 737 0112 9091 0000 		lds r25,(press_time)+1
 738 0116 0097      		sbiw r24,0
 739 0118 01F4      		brne .+2
 740 011a 00C0      		rjmp .L70
 741 011c C297      		sbiw r24,50
 742 011e 00F0      		brlo .+2
 743 0120 00C0      		rjmp .L70
 744 0122 1430      		cpi r17,lo8(4)
 745 0124 01F4      		brne .+2
 746 0126 00C0      		rjmp .L70
 747               	.LSM122:
 748 0128 8091 0000 		lds r24,layout
 749 012c 9091 0000 		lds r25,(layout)+1
 750 0130 20E0      		ldi r18,lo8(layer2)
 751 0132 30E0      		ldi r19,hi8(layer2)
 752 0134 8217      		cp r24,r18
 753 0136 9307      		cpc r25,r19
 754 0138 01F0      		breq .L70
 755               	.LSM123:
 756 013a 8050      		subi r24,lo8(layer_fn)
 757 013c 9040      		sbci r25,hi8(layer_fn)
 758 013e 01F4      		brne .L68
 759               	.LSM124:
 760 0140 3093 0000 		sts (prev_layer)+1,r19
 761 0144 2093 0000 		sts prev_layer,r18
 762 0148 00C0      		rjmp .L69
 763               	.L68:
 764               	.LSM125:
 765 014a 3093 0000 		sts (layout)+1,r19
 766 014e 2093 0000 		sts layout,r18
 767               	.L69:
 768               	.LSM126:
 769 0152 0E94 0000 		call change_layout
 770               	.LSM127:
 771 0156 5998      		cbi 43-32,1
 772               	.LSM128:
 773 0158 8091 0000 		lds r24,led
 774 015c 8823      		tst r24
 775 015e 01F0      		breq .L70
 776 0160 4698      		cbi 40-32,6
 777 0162 00C0      		rjmp .L70
 778               	.LVL35:
 779               	.L66:
 780               	.LSM129:
 781 0164 E737      		cpi r30,lo8(119)
 782 0166 01F0      		breq .+2
 783 0168 00C0      		rjmp .L87
 784               	.LSM130:
 785 016a 8091 0000 		lds r24,mod_keys
 786               	.LVL36:
 787 016e 8D7F      		andi r24,lo8(-3)
 788 0170 8093 0000 		sts mod_keys,r24
 789               	.LSM131:
 790 0174 0E94 0000 		call send
 791               	.LVL37:
 792               	.LSM132:
 793 0178 8091 0000 		lds r24,last_key
 794 017c 8017      		cp r24,r16
 795 017e 01F4      		brne .L70
 796 0180 8091 0000 		lds r24,press_time
 797 0184 9091 0000 		lds r25,(press_time)+1
 798 0188 0097      		sbiw r24,0
 799 018a 01F0      		breq .L70
 800 018c C297      		sbiw r24,50
 801 018e 00F4      		brsh .L70
 802 0190 1230      		cpi r17,lo8(2)
 803 0192 01F0      		breq .L70
 804 0194 8091 0000 		lds r24,mod_keys
 805 0198 8823      		tst r24
 806 019a 01F4      		brne .L70
 807               	.LSM133:
 808 019c 8CE2      		ldi r24,lo8(44)
 809 019e 60E0      		ldi r22,lo8(0)
 810 01a0 0E94 0000 		call usb_keyboard_press
 811               	.L70:
 812               	.LSM134:
 813 01a4 8FEF      		ldi r24,lo8(-1)
 814 01a6 8093 0000 		sts last_key,r24
 815 01aa 00C0      		rjmp .L86
 816               	.LVL38:
 817               	.L57:
 818               	.LSM135:
 819 01ac E536      		cpi r30,lo8(101)
 820 01ae 00F4      		brsh .+2
 821 01b0 00C0      		rjmp .L71
 822               	.LSM136:
 823 01b2 8091 0000 		lds r24,os_mode
 824               	.LVL39:
 825 01b6 8230      		cpi r24,lo8(2)
 826 01b8 01F4      		brne .L72
 827 01ba E536      		cpi r30,lo8(101)
 828 01bc 01F0      		breq .L93
 829               	.L73:
 830               	.LSM137:
 831 01be E936      		cpi r30,lo8(105)
 832 01c0 01F0      		breq .L75
 833               	.L72:
 834 01c2 EC36      		cpi r30,lo8(108)
 835 01c4 01F4      		brne .L76
 836               	.L75:
 837               	.LSM138:
 838 01c6 8091 0000 		lds r24,mod_keys
 839 01ca 8F77      		andi r24,lo8(127)
 840 01cc 00C0      		rjmp .L90
 841               	.L76:
 842               	.LSM139:
 843 01ce E536      		cpi r30,lo8(101)
 844 01d0 01F4      		brne .L77
 845               	.LSM140:
 846 01d2 8091 0000 		lds r24,mod_keys
 847 01d6 8E7F      		andi r24,lo8(-2)
 848 01d8 00C0      		rjmp .L90
 849               	.L77:
 850               	.LSM141:
 851 01da E636      		cpi r30,lo8(102)
 852 01dc 01F4      		brne .L78
 853               	.LSM142:
 854 01de 8091 0000 		lds r24,mod_keys
 855 01e2 8D7F      		andi r24,lo8(-3)
 856 01e4 00C0      		rjmp .L90
 857               	.L78:
 858               	.LSM143:
 859 01e6 E736      		cpi r30,lo8(103)
 860 01e8 01F4      		brne .L79
 861               	.LSM144:
 862 01ea 8091 0000 		lds r24,mod_keys
 863 01ee 8B7F      		andi r24,lo8(-5)
 864 01f0 00C0      		rjmp .L90
 865               	.L79:
 866               	.LSM145:
 867 01f2 E836      		cpi r30,lo8(104)
 868 01f4 01F4      		brne .L80
 869               	.L93:
 870               	.LSM146:
 871 01f6 8091 0000 		lds r24,mod_keys
 872 01fa 877F      		andi r24,lo8(-9)
 873 01fc 00C0      		rjmp .L90
 874               	.L80:
 875               	.LSM147:
 876 01fe E936      		cpi r30,lo8(105)
 877 0200 01F4      		brne .L81
 878               	.LSM148:
 879 0202 8091 0000 		lds r24,mod_keys
 880 0206 8F7E      		andi r24,lo8(-17)
 881 0208 00C0      		rjmp .L90
 882               	.L81:
 883 020a 8091 0000 		lds r24,mod_keys
 884               	.LSM149:
 885 020e EA36      		cpi r30,lo8(106)
 886 0210 01F4      		brne .L82
 887               	.LSM150:
 888 0212 8F7D      		andi r24,lo8(-33)
 889 0214 00C0      		rjmp .L90
 890               	.L82:
 891               	.LSM151:
 892 0216 8F7B      		andi r24,lo8(-65)
 893               	.L90:
 894 0218 8093 0000 		sts mod_keys,r24
 895               	.LSM152:
 896 021c 0E94 0000 		call send
 897               	.LVL40:
 898               	.LSM153:
 899 0220 1092 0000 		sts (press_time)+1,__zero_reg__
 900 0224 1092 0000 		sts press_time,__zero_reg__
 901               	.LSM154:
 902 0228 1092 0000 		sts (press_time2)+1,__zero_reg__
 903 022c 1092 0000 		sts press_time2,__zero_reg__
 904               	.LSM155:
 905 0230 1092 0000 		sts (release_time)+1,__zero_reg__
 906 0234 1092 0000 		sts release_time,__zero_reg__
 907               	.LSM156:
 908 0238 1092 0000 		sts (repeat_time)+1,__zero_reg__
 909 023c 1092 0000 		sts repeat_time,__zero_reg__
 910               	.LSM157:
 911 0240 1092 0000 		sts last_key,__zero_reg__
 912 0244 00C0      		rjmp .L87
 913               	.LVL41:
 914               	.L71:
 915 0246 E0E0      		ldi r30,lo8(queue)
 916 0248 F0E0      		ldi r31,hi8(queue)
 917               	.LVL42:
 918 024a 90E0      		ldi r25,lo8(0)
 919               	.LVL43:
 920               	.L84:
 921               	.LSM158:
 922 024c 8081      		ld r24,Z
 923 024e 8017      		cp r24,r16
 924 0250 01F0      		breq .L89
 925               	.LSM159:
 926 0252 9F5F      		subi r25,lo8(-(1))
 927 0254 3196      		adiw r30,1
 928 0256 9630      		cpi r25,lo8(6)
 929 0258 01F4      		brne .L84
 930 025a 00C0      		rjmp .L89
 931               	.L85:
 932               	.LSM160:
 933 025c E92F      		mov r30,r25
 934 025e F0E0      		ldi r31,lo8(0)
 935 0260 E050      		subi r30,lo8(-(queue))
 936 0262 F040      		sbci r31,hi8(-(queue))
 937 0264 8181      		ldd r24,Z+1
 938 0266 8083      		st Z,r24
 939               	.LSM161:
 940 0268 9F5F      		subi r25,lo8(-(1))
 941               	.L89:
 942 026a 9630      		cpi r25,lo8(6)
 943 026c 00F0      		brlo .L85
 944               	.LSM162:
 945 026e 0E94 0000 		call send
 946               	.LVL44:
 947               	.LSM163:
 948 0272 8091 0000 		lds r24,last_key
 949 0276 8017      		cp r24,r16
 950 0278 01F4      		brne .L86
 951               	.LSM164:
 952 027a 1092 0000 		sts (press_time2)+1,__zero_reg__
 953 027e 1092 0000 		sts press_time2,__zero_reg__
 954               	.LSM165:
 955 0282 81E0      		ldi r24,lo8(1)
 956 0284 90E0      		ldi r25,hi8(1)
 957 0286 9093 0000 		sts (release_time)+1,r25
 958 028a 8093 0000 		sts release_time,r24
 959 028e 00C0      		rjmp .L92
 960               	.L86:
 961               	.LSM166:
 962 0290 1092 0000 		sts (press_time)+1,__zero_reg__
 963 0294 1092 0000 		sts press_time,__zero_reg__
 964               	.LSM167:
 965 0298 1092 0000 		sts (press_time2)+1,__zero_reg__
 966 029c 1092 0000 		sts press_time2,__zero_reg__
 967               	.LSM168:
 968 02a0 1092 0000 		sts (release_time)+1,__zero_reg__
 969 02a4 1092 0000 		sts release_time,__zero_reg__
 970               	.L92:
 971               	.LSM169:
 972 02a8 1092 0000 		sts (repeat_time)+1,__zero_reg__
 973 02ac 1092 0000 		sts repeat_time,__zero_reg__
 974               	.LVL45:
 975               	.L87:
 976               	/* epilogue start */
 977               	.LSM170:
 978 02b0 DF91      		pop r29
 979 02b2 CF91      		pop r28
 980 02b4 1F91      		pop r17
 981               	.LVL46:
 982 02b6 0F91      		pop r16
 983               	.LVL47:
 984 02b8 0895      		ret
 985               	.LFE13:
 987               		.section	.text.key_press,"ax",@progbits
 988               	.global	key_press
 990               	key_press:
 991               	.LFB12:
 992               	.LSM171:
 993               	.LVL48:
 994 0000 1F93      		push r17
 995 0002 CF93      		push r28
 996 0004 DF93      		push r29
 997               	/* prologue: function */
 998               	/* frame size = 0 */
 999 0006 182F      		mov r17,r24
 1000               	.LSM172:
 1001 0008 6091 0000 		lds r22,mod_keys
 1002               	.LVL49:
 1003 000c 262F      		mov r18,r22
 1004               	.LVL50:
 1005 000e 2D7D      		andi r18,lo8(-35)
 1006               	.LSM173:
 1007 0010 C82F      		mov r28,r24
 1008 0012 D0E0      		ldi r29,lo8(0)
 1009 0014 8091 0000 		lds r24,pressed+39
 1010               	.LVL51:
 1011 0018 8823      		tst r24
 1012 001a 01F0      		breq .L95
 1013 001c 91E0      		ldi r25,lo8(1)
 1014 001e 00C0      		rjmp .L96
 1015               	.L95:
 1016 0020 2223      		tst r18
 1017 0022 01F4      		brne .L97
 1018 0024 9FEF      		ldi r25,lo8(-1)
 1019 0026 00C0      		rjmp .L96
 1020               	.L97:
 1021 0028 92E0      		ldi r25,lo8(2)
 1022               	.L96:
 1023 002a FE01      		movw r30,r28
 1024 002c E050      		subi r30,lo8(-(pressed))
 1025 002e F040      		sbci r31,hi8(-(pressed))
 1026 0030 9083      		st Z,r25
 1027               	.LSM174:
 1028 0032 1732      		cpi r17,lo8(39)
 1029 0034 01F4      		brne .L98
 1030 0036 8091 0000 		lds r24,led
 1031 003a 8130      		cpi r24,lo8(1)
 1032 003c 01F4      		brne .L98
 1033               	.LSM175:
 1034 003e 5E98      		cbi 43-32,6
 1035               	.L98:
 1036               	.LSM176:
 1037 0040 9130      		cpi r25,lo8(1)
 1038 0042 01F4      		brne .L99
 1039 0044 FE01      		movw r30,r28
 1040 0046 E050      		subi r30,lo8(-(layer_fn))
 1041 0048 F040      		sbci r31,hi8(-(layer_fn))
 1042 004a 00C0      		rjmp .L151
 1043               	.L99:
 1044 004c E091 0000 		lds r30,layout
 1045 0050 F091 0000 		lds r31,(layout)+1
 1046 0054 E10F      		add r30,r17
 1047 0056 F11D      		adc r31,__zero_reg__
 1048               	.L151:
 1049 0058 E081      		ld r30,Z
 1050               	.LVL52:
 1051               	.LSM177:
 1052 005a EE23      		tst r30
 1053 005c 01F4      		brne .L101
 1054               	.LSM178:
 1055 005e 412F      		mov r20,r17
 1056 0060 50E0      		ldi r21,lo8(0)
 1057 0062 E091 0000 		lds r30,layout
 1058 0066 F091 0000 		lds r31,(layout)+1
 1059               	.LVL53:
 1060 006a E40F      		add r30,r20
 1061 006c F51F      		adc r31,r21
 1062 006e E081      		ld r30,Z
 1063               	.LVL54:
 1064               	.LSM179:
 1065 0070 2223      		tst r18
 1066 0072 01F4      		brne .L102
 1067 0074 8FEF      		ldi r24,lo8(-1)
 1068 0076 00C0      		rjmp .L103
 1069               	.L102:
 1070 0078 82E0      		ldi r24,lo8(2)
 1071               	.L103:
 1072 007a 9E01      		movw r18,r28
 1073               	.LVL55:
 1074 007c 2050      		subi r18,lo8(-(pressed))
 1075 007e 3040      		sbci r19,hi8(-(pressed))
 1076 0080 D901      		movw r26,r18
 1077 0082 8C93      		st X,r24
 1078               	.LSM180:
 1079 0084 EE23      		tst r30
 1080 0086 01F4      		brne .L101
 1081 0088 A091 0000 		lds r26,prev_layer
 1082 008c B091 0000 		lds r27,(prev_layer)+1
 1083 0090 1097      		sbiw r26,0
 1084 0092 01F0      		breq .L101
 1085 0094 6623      		tst r22
 1086 0096 01F4      		brne .L101
 1087               	.LSM181:
 1088 0098 A40F      		add r26,r20
 1089 009a B51F      		adc r27,r21
 1090 009c EC91      		ld r30,X
 1091               	.LSM182:
 1092 009e 86E0      		ldi r24,lo8(6)
 1093 00a0 D901      		movw r26,r18
 1094 00a2 8C93      		st X,r24
 1095               	.LVL56:
 1096               	.L101:
 1097               	.LSM183:
 1098 00a4 8091 0000 		lds r24,locked
 1099 00a8 8823      		tst r24
 1100 00aa 01F0      		breq .L104
 1101 00ac EA37      		cpi r30,lo8(122)
 1102 00ae 01F0      		breq .+2
 1103 00b0 00C0      		rjmp .L147
 1104 00b2 00C0      		rjmp .L106
 1105               	.L104:
 1106               	.LSM184:
 1107 00b4 ED36      		cpi r30,lo8(109)
 1108 00b6 00F4      		brsh .+2
 1109 00b8 00C0      		rjmp .L107
 1110               	.LSM185:
 1111 00ba ED37      		cpi r30,lo8(125)
 1112 00bc 01F4      		brne .L108
 1113               	.LSM186:
 1114 00be FE01      		movw r30,r28
 1115               	.LVL57:
 1116 00c0 E050      		subi r30,lo8(-(pressed))
 1117 00c2 F040      		sbci r31,hi8(-(pressed))
 1118 00c4 8081      		ld r24,Z
 1119 00c6 8130      		cpi r24,lo8(1)
 1120 00c8 01F4      		brne .L109
 1121               	.LSM187:
 1122 00ca 8BE2      		ldi r24,lo8(43)
 1123 00cc 64E0      		ldi r22,lo8(4)
 1124               	.LVL58:
 1125 00ce 00C0      		rjmp .L154
 1126               	.LVL59:
 1127               	.L109:
 1128               	.LSM188:
 1129 00d0 6623      		tst r22
 1130 00d2 01F4      		brne .L111
 1131               	.LSM189:
 1132 00d4 84E0      		ldi r24,lo8(4)
 1133 00d6 8093 0000 		sts mod_keys,r24
 1134 00da 00C0      		rjmp .L112
 1135               	.L111:
 1136               	.LSM190:
 1137 00dc 83E0      		ldi r24,lo8(3)
 1138 00de 8083      		st Z,r24
 1139               	.L112:
 1140               	.LSM191:
 1141 00e0 8091 0000 		lds r24,mod_keys
 1142 00e4 8093 0000 		sts keyboard_modifier_keys,r24
 1143               	.LSM192:
 1144 00e8 8BE2      		ldi r24,lo8(43)
 1145 00ea 8093 0000 		sts keyboard_keys,r24
 1146               	.LSM193:
 1147 00ee 0E94 0000 		call usb_keyboard_send
 1148               	.LVL60:
 1149 00f2 84EF      		ldi r24,lo8(500)
 1150 00f4 91E0      		ldi r25,hi8(500)
 1151               	.LVL61:
 1152               	.LBB62:
 1153               	.LBB63:
 1154               	.LBB64:
 1155               	.LBB65:
 1156               	.LSM194:
 1157 00f6 20E9      		ldi r18,lo8(400)
 1158 00f8 31E0      		ldi r19,hi8(400)
 1159               	.L113:
 1160 00fa F901      		movw r30,r18
 1161               	.LVL62:
 1162               	/* #APP */
 1163               	 ;  105 "c:/winavr-20100110/lib/gcc/../../avr/include/util/delay_basic.h" 1
 1164 00fc 3197      		1: sbiw r30,1
 1165 00fe 01F4      		brne 1b
 1166               	 ;  0 "" 2
 1167               	/* #NOAPP */
 1168               	.LBE65:
 1169               	.LBE64:
 1170               	.LSM195:
 1171 0100 0197      		sbiw r24,1
 1172               	.LSM196:
 1173 0102 01F4      		brne .L113
 1174 0104 00C0      		rjmp .L153
 1175               	.LVL63:
 1176               	.L108:
 1177               	.LBE63:
 1178               	.LBE62:
 1179               	.LSM197:
 1180 0106 E637      		cpi r30,lo8(118)
 1181 0108 01F4      		brne .L114
 1182               	.LSM198:
 1183 010a 6623      		tst r22
 1184 010c 01F4      		brne .L115
 1185               	.LSM199:
 1186 010e 84E0      		ldi r24,lo8(4)
 1187 0110 8093 0000 		sts mod_keys,r24
 1188 0114 00C0      		rjmp .L116
 1189               	.L115:
 1190               	.LSM200:
 1191 0116 C050      		subi r28,lo8(-(pressed))
 1192 0118 D040      		sbci r29,hi8(-(pressed))
 1193 011a 83E0      		ldi r24,lo8(3)
 1194 011c 8883      		st Y,r24
 1195               	.L116:
 1196               	.LSM201:
 1197 011e 8091 0000 		lds r24,mod_keys
 1198 0122 8093 0000 		sts keyboard_modifier_keys,r24
 1199               	.LSM202:
 1200 0126 88E2      		ldi r24,lo8(40)
 1201 0128 8093 0000 		sts keyboard_keys,r24
 1202               	.LSM203:
 1203 012c 0E94 0000 		call usb_keyboard_send
 1204               	.LVL64:
 1205 0130 84EF      		ldi r24,lo8(500)
 1206 0132 91E0      		ldi r25,hi8(500)
 1207               	.LVL65:
 1208               	.LBB66:
 1209               	.LBB67:
 1210               	.LBB68:
 1211               	.LBB69:
 1212               	.LSM204:
 1213 0134 20E9      		ldi r18,lo8(400)
 1214 0136 31E0      		ldi r19,hi8(400)
 1215               	.L117:
 1216 0138 F901      		movw r30,r18
 1217               	.LVL66:
 1218               	/* #APP */
 1219               	 ;  105 "c:/winavr-20100110/lib/gcc/../../avr/include/util/delay_basic.h" 1
 1220 013a 3197      		1: sbiw r30,1
 1221 013c 01F4      		brne 1b
 1222               	 ;  0 "" 2
 1223               	/* #NOAPP */
 1224               	.LBE69:
 1225               	.LBE68:
 1226               	.LSM205:
 1227 013e 0197      		sbiw r24,1
 1228               	.LSM206:
 1229 0140 01F4      		brne .L117
 1230 0142 00C0      		rjmp .L153
 1231               	.LVL67:
 1232               	.L114:
 1233               	.LBE67:
 1234               	.LBE66:
 1235               	.LSM207:
 1236 0144 EE37      		cpi r30,lo8(126)
 1237 0146 01F4      		brne .L118
 1238               	.LSM208:
 1239 0148 C050      		subi r28,lo8(-(pressed))
 1240 014a D040      		sbci r29,hi8(-(pressed))
 1241 014c 8881      		ld r24,Y
 1242 014e 8130      		cpi r24,lo8(1)
 1243 0150 01F0      		breq .+2
 1244 0152 00C0      		rjmp .L110
 1245 0154 6272      		andi r22,lo8(34)
 1246 0156 01F4      		brne .+2
 1247 0158 00C0      		rjmp .L110
 1248               	.LSM209:
 1249 015a 8091 0000 		lds r24,prev_layer
 1250 015e 9091 0000 		lds r25,(prev_layer)+1
 1251 0162 0097      		sbiw r24,0
 1252 0164 01F0      		breq .L119
 1253               	.LSM210:
 1254 0166 9093 0000 		sts (layout)+1,r25
 1255 016a 8093 0000 		sts layout,r24
 1256               	.LSM211:
 1257 016e 0E94 0000 		call restore_leds
 1258               	.LVL68:
 1259               	.LSM212:
 1260 0172 1092 0000 		sts (prev_layer)+1,__zero_reg__
 1261 0176 1092 0000 		sts prev_layer,__zero_reg__
 1262 017a 00C0      		rjmp .L110
 1263               	.LVL69:
 1264               	.L119:
 1265               	.LSM213:
 1266 017c 8091 0000 		lds r24,layout
 1267 0180 9091 0000 		lds r25,(layout)+1
 1268 0184 9093 0000 		sts (prev_layer)+1,r25
 1269 0188 8093 0000 		sts prev_layer,r24
 1270               	.LSM214:
 1271 018c 80E0      		ldi r24,lo8(layer_fnlock)
 1272 018e 90E0      		ldi r25,hi8(layer_fnlock)
 1273 0190 9093 0000 		sts (layout)+1,r25
 1274 0194 8093 0000 		sts layout,r24
 1275               	.LSM215:
 1276 0198 4698      		cbi 40-32,6
 1277               	.LSM216:
 1278 019a 599A      		sbi 43-32,1
 1279 019c 00C0      		rjmp .L110
 1280               	.L118:
 1281               	.LSM217:
 1282 019e EC37      		cpi r30,lo8(124)
 1283 01a0 01F4      		brne .L106
 1284               	.LSM218:
 1285 01a2 C050      		subi r28,lo8(-(pressed))
 1286 01a4 D040      		sbci r29,hi8(-(pressed))
 1287 01a6 8881      		ld r24,Y
 1288 01a8 8130      		cpi r24,lo8(1)
 1289 01aa 01F4      		brne .L120
 1290 01ac 862F      		mov r24,r22
 1291 01ae 8272      		andi r24,lo8(34)
 1292 01b0 01F0      		breq .L120
 1293               	.LSM219:
 1294 01b2 8091 0000 		lds r24,os_mode
 1295 01b6 8F5F      		subi r24,lo8(-(1))
 1296 01b8 8093 0000 		sts os_mode,r24
 1297               	.LSM220:
 1298 01bc 8330      		cpi r24,lo8(3)
 1299 01be 00F4      		brsh .+2
 1300 01c0 00C0      		rjmp .L110
 1301 01c2 1092 0000 		sts os_mode,__zero_reg__
 1302 01c6 00C0      		rjmp .L110
 1303               	.L120:
 1304               	.LSM221:
 1305 01c8 8CE2      		ldi r24,lo8(44)
 1306               	.L154:
 1307 01ca 0E94 0000 		call usb_keyboard_press
 1308               	.LVL70:
 1309 01ce 00C0      		rjmp .L110
 1310               	.LVL71:
 1311               	.L106:
 1312               	.LSM222:
 1313 01d0 ED36      		cpi r30,lo8(109)
 1314 01d2 01F4      		brne .L121
 1315               	.LSM223:
 1316 01d4 862F      		mov r24,r22
 1317 01d6 8272      		andi r24,lo8(34)
 1318 01d8 01F0      		breq .L122
 1319               	.LSM224:
 1320 01da C050      		subi r28,lo8(-(pressed))
 1321 01dc D040      		sbci r29,hi8(-(pressed))
 1322 01de 85E0      		ldi r24,lo8(5)
 1323 01e0 8883      		st Y,r24
 1324               	.LSM225:
 1325 01e2 6160      		ori r22,lo8(1)
 1326 01e4 00C0      		rjmp .L158
 1327               	.L122:
 1328               	.LSM226:
 1329 01e6 6623      		tst r22
 1330 01e8 01F0      		breq .L159
 1331 01ea C050      		subi r28,lo8(-(pressed))
 1332 01ec D040      		sbci r29,hi8(-(pressed))
 1333 01ee 84E0      		ldi r24,lo8(4)
 1334 01f0 8883      		st Y,r24
 1335 01f2 00C0      		rjmp .L159
 1336               	.L121:
 1337               	.LSM227:
 1338 01f4 EE36      		cpi r30,lo8(110)
 1339 01f6 01F4      		brne .L124
 1340               	.LSM228:
 1341 01f8 6062      		ori r22,lo8(32)
 1342 01fa 00C0      		rjmp .L158
 1343               	.L124:
 1344               	.LSM229:
 1345 01fc EB37      		cpi r30,lo8(123)
 1346 01fe 01F4      		brne .L125
 1347               	.LSM230:
 1348 0200 90E0      		ldi r25,lo8(0)
 1349 0202 8091 0000 		lds r24,turbo_repeat
 1350 0206 8823      		tst r24
 1351 0208 01F4      		brne .L126
 1352 020a 91E0      		ldi r25,lo8(1)
 1353               	.L126:
 1354 020c 9093 0000 		sts turbo_repeat,r25
 1355               	.LSM231:
 1356 0210 0E94 0000 		call blink_leds
 1357               	.LVL72:
 1358 0214 00C0      		rjmp .L110
 1359               	.LVL73:
 1360               	.L125:
 1361               	.LSM232:
 1362 0216 E737      		cpi r30,lo8(119)
 1363 0218 01F4      		brne .L127
 1364               	.L159:
 1365               	.LSM233:
 1366 021a 6260      		ori r22,lo8(2)
 1367               	.L158:
 1368 021c 6093 0000 		sts mod_keys,r22
 1369 0220 00C0      		rjmp .L153
 1370               	.L127:
 1371               	.LSM234:
 1372 0222 EF36      		cpi r30,lo8(111)
 1373 0224 01F4      		brne .+2
 1374 0226 00C0      		rjmp .L110
 1375               	.LSM235:
 1376 0228 EA37      		cpi r30,lo8(122)
 1377 022a 01F4      		brne .L128
 1378               	.LSM236:
 1379 022c 8823      		tst r24
 1380 022e 01F0      		breq .L129
 1381               	.LSM237:
 1382 0230 1092 0000 		sts locked,__zero_reg__
 1383               	.LSM238:
 1384 0234 8091 0000 		lds r24,led
 1385 0238 8823      		tst r24
 1386 023a 01F4      		brne .+2
 1387 023c 00C0      		rjmp .L110
 1388 023e 00C0      		rjmp .L155
 1389               	.L129:
 1390               	.LSM239:
 1391 0240 81E0      		ldi r24,lo8(1)
 1392 0242 8093 0000 		sts locked,r24
 1393               	.LSM240:
 1394 0246 5E9A      		sbi 43-32,6
 1395               	.LSM241:
 1396 0248 469A      		sbi 40-32,6
 1397               	.LSM242:
 1398 024a 5998      		cbi 43-32,1
 1399               	.LSM243:
 1400 024c 8FE0      		ldi r24,lo8(15)
 1401 024e 68E0      		ldi r22,lo8(8)
 1402               	.LVL74:
 1403 0250 00C0      		rjmp .L154
 1404               	.LVL75:
 1405               	.L128:
 1406               	.LSM244:
 1407 0252 E937      		cpi r30,lo8(121)
 1408 0254 01F0      		breq .+2
 1409 0256 00C0      		rjmp .L110
 1410 0258 6272      		andi r22,lo8(34)
 1411 025a 01F4      		brne .+2
 1412 025c 00C0      		rjmp .L110
 1413               	.LSM245:
 1414 025e 8091 0000 		lds r24,led
 1415 0262 8823      		tst r24
 1416 0264 01F0      		breq .L130
 1417               	.LSM246:
 1418 0266 1092 0000 		sts led,__zero_reg__
 1419               	.LSM247:
 1420 026a 5E9A      		sbi 43-32,6
 1421               	.LSM248:
 1422 026c 469A      		sbi 40-32,6
 1423               	.LSM249:
 1424 026e 5998      		cbi 43-32,1
 1425 0270 00C0      		rjmp .L110
 1426               	.L130:
 1427               	.LSM250:
 1428 0272 81E0      		ldi r24,lo8(1)
 1429 0274 8093 0000 		sts led,r24
 1430               	.L155:
 1431               	.LSM251:
 1432 0278 0E94 0000 		call restore_leds
 1433               	.LVL76:
 1434 027c 00C0      		rjmp .L110
 1435               	.LVL77:
 1436               	.L107:
 1437               	.LSM252:
 1438 027e E536      		cpi r30,lo8(101)
 1439 0280 00F0      		brlo .L131
 1440               	.LSM253:
 1441 0282 8091 0000 		lds r24,os_mode
 1442 0286 8230      		cpi r24,lo8(2)
 1443 0288 01F4      		brne .L132
 1444 028a E536      		cpi r30,lo8(101)
 1445 028c 01F0      		breq .L157
 1446               	.L133:
 1447               	.LSM254:
 1448 028e E936      		cpi r30,lo8(105)
 1449 0290 01F0      		breq .L135
 1450               	.L132:
 1451 0292 EC36      		cpi r30,lo8(108)
 1452 0294 01F4      		brne .L136
 1453               	.L135:
 1454               	.LSM255:
 1455 0296 6068      		ori r22,lo8(-128)
 1456 0298 00C0      		rjmp .L152
 1457               	.L136:
 1458               	.LSM256:
 1459 029a E536      		cpi r30,lo8(101)
 1460 029c 01F4      		brne .L137
 1461               	.LSM257:
 1462 029e 6160      		ori r22,lo8(1)
 1463 02a0 00C0      		rjmp .L152
 1464               	.L137:
 1465               	.LSM258:
 1466 02a2 E636      		cpi r30,lo8(102)
 1467 02a4 01F4      		brne .L138
 1468               	.LSM259:
 1469 02a6 6260      		ori r22,lo8(2)
 1470 02a8 00C0      		rjmp .L152
 1471               	.L138:
 1472               	.LSM260:
 1473 02aa E736      		cpi r30,lo8(103)
 1474 02ac 01F4      		brne .L139
 1475               	.LSM261:
 1476 02ae 6460      		ori r22,lo8(4)
 1477 02b0 00C0      		rjmp .L152
 1478               	.L139:
 1479               	.LSM262:
 1480 02b2 E836      		cpi r30,lo8(104)
 1481 02b4 01F4      		brne .L140
 1482               	.L157:
 1483               	.LSM263:
 1484 02b6 6860      		ori r22,lo8(8)
 1485 02b8 00C0      		rjmp .L152
 1486               	.L140:
 1487               	.LSM264:
 1488 02ba E936      		cpi r30,lo8(105)
 1489 02bc 01F4      		brne .L141
 1490               	.LSM265:
 1491 02be 6061      		ori r22,lo8(16)
 1492 02c0 00C0      		rjmp .L152
 1493               	.L141:
 1494               	.LSM266:
 1495 02c2 EA36      		cpi r30,lo8(106)
 1496 02c4 01F4      		brne .L142
 1497               	.LSM267:
 1498 02c6 6062      		ori r22,lo8(32)
 1499 02c8 00C0      		rjmp .L152
 1500               	.L142:
 1501               	.LSM268:
 1502 02ca 6064      		ori r22,lo8(64)
 1503               	.L152:
 1504 02cc 6093 0000 		sts mod_keys,r22
 1505               	.LSM269:
 1506 02d0 0E94 0000 		call send
 1507               	.LVL78:
 1508               	.LSM270:
 1509 02d4 1092 0000 		sts (press_time)+1,__zero_reg__
 1510 02d8 1092 0000 		sts press_time,__zero_reg__
 1511               	.LSM271:
 1512 02dc 1092 0000 		sts (release_time)+1,__zero_reg__
 1513 02e0 1092 0000 		sts release_time,__zero_reg__
 1514               	.LSM272:
 1515 02e4 1092 0000 		sts last_key,__zero_reg__
 1516 02e8 00C0      		rjmp .L110
 1517               	.LVL79:
 1518               	.L131:
 1519               	.LSM273:
 1520 02ea 8091 0000 		lds r24,last_key
 1521 02ee 8117      		cp r24,r17
 1522 02f0 01F0      		breq .L143
 1523               	.L145:
 1524 02f2 E0E0      		ldi r30,lo8(queue+4)
 1525 02f4 F0E0      		ldi r31,hi8(queue+4)
 1526               	.LVL80:
 1527 02f6 00C0      		rjmp .L144
 1528               	.LVL81:
 1529               	.L143:
 1530 02f8 8091 0000 		lds r24,release_time
 1531 02fc 9091 0000 		lds r25,(release_time)+1
 1532 0300 0A97      		sbiw r24,10
 1533 0302 00F4      		brsh .L145
 1534 0304 00C0      		rjmp .L110
 1535               	.LVL82:
 1536               	.L144:
 1537               	.LSM274:
 1538 0306 8081      		ld r24,Z
 1539 0308 8183      		std Z+1,r24
 1540 030a 3197      		sbiw r30,1
 1541 030c B0E0      		ldi r27,hi8(queue-1)
 1542 030e E030      		cpi r30,lo8(queue-1)
 1543 0310 FB07      		cpc r31,r27
 1544 0312 01F4      		brne .L144
 1545               	.LSM275:
 1546 0314 1183      		std Z+1,r17
 1547               	.LVL83:
 1548               	.L153:
 1549               	.LSM276:
 1550 0316 0E94 0000 		call send
 1551               	.LVL84:
 1552               	.L110:
 1553               	.LSM277:
 1554 031a 8091 0000 		lds r24,last_key
 1555 031e 8117      		cp r24,r17
 1556 0320 01F4      		brne .L146
 1557               	.LSM278:
 1558 0322 81E0      		ldi r24,lo8(1)
 1559 0324 90E0      		ldi r25,hi8(1)
 1560 0326 9093 0000 		sts (press_time2)+1,r25
 1561 032a 8093 0000 		sts press_time2,r24
 1562 032e 00C0      		rjmp .L156
 1563               	.L146:
 1564               	.LSM279:
 1565 0330 1093 0000 		sts last_key,r17
 1566               	.LSM280:
 1567 0334 81E0      		ldi r24,lo8(1)
 1568 0336 90E0      		ldi r25,hi8(1)
 1569 0338 9093 0000 		sts (press_time)+1,r25
 1570 033c 8093 0000 		sts press_time,r24
 1571               	.LSM281:
 1572 0340 1092 0000 		sts (press_time2)+1,__zero_reg__
 1573 0344 1092 0000 		sts press_time2,__zero_reg__
 1574               	.LSM282:
 1575 0348 1092 0000 		sts (release_time)+1,__zero_reg__
 1576 034c 1092 0000 		sts release_time,__zero_reg__
 1577               	.L156:
 1578               	.LSM283:
 1579 0350 1092 0000 		sts (repeat_time)+1,__zero_reg__
 1580 0354 1092 0000 		sts repeat_time,__zero_reg__
 1581               	.L147:
 1582               	/* epilogue start */
 1583               	.LSM284:
 1584 0358 DF91      		pop r29
 1585 035a CF91      		pop r28
 1586 035c 1F91      		pop r17
 1587               	.LVL85:
 1588 035e 0895      		ret
 1589               	.LFE12:
 1591               		.section	.text.poll,"ax",@progbits
 1592               	.global	poll
 1594               	poll:
 1595               	.LFB9:
 1596               	.LSM285:
 1597 0000 9F92      		push r9
 1598 0002 AF92      		push r10
 1599 0004 BF92      		push r11
 1600 0006 CF92      		push r12
 1601 0008 DF92      		push r13
 1602 000a EF92      		push r14
 1603 000c FF92      		push r15
 1604 000e 0F93      		push r16
 1605 0010 1F93      		push r17
 1606 0012 CF93      		push r28
 1607 0014 DF93      		push r29
 1608               	/* prologue: function */
 1609               	/* frame size = 0 */
 1610               	.LSM286:
 1611 0016 70E0      		ldi r23,lo8(row_port)
 1612 0018 A72E      		mov r10,r23
 1613 001a 70E0      		ldi r23,hi8(row_port)
 1614 001c B72E      		mov r11,r23
 1615 001e 60E0      		ldi r22,lo8(row_bit)
 1616 0020 C62E      		mov r12,r22
 1617 0022 60E0      		ldi r22,hi8(row_bit)
 1618 0024 D62E      		mov r13,r22
 1619 0026 EE24      		clr r14
 1620               	.LVL86:
 1621               	.LBB70:
 1622               	.LBB71:
 1623               	.LBB72:
 1624               	.LBB73:
 1625               	.LSM287:
 1626 0028 55E0      		ldi r21,lo8(5)
 1627 002a 952E      		mov r9,r21
 1628               	.L164:
 1629               	.LBE73:
 1630               	.LBE72:
 1631               	.LBE71:
 1632               	.LBE70:
 1633               	.LSM288:
 1634 002c D501      		movw r26,r10
 1635 002e ED91      		ld r30,X+
 1636 0030 FC91      		ld r31,X
 1637 0032 D601      		movw r26,r12
 1638 0034 9C91      		ld r25,X
 1639 0036 9095      		com r25
 1640 0038 8081      		ld r24,Z
 1641 003a 8923      		and r24,r25
 1642 003c 8083      		st Z,r24
 1643               	.LBB77:
 1644               	.LBB76:
 1645               	.LBB75:
 1646               	.LBB74:
 1647               	.LSM289:
 1648 003e 892D      		mov r24,r9
 1649               	.LVL87:
 1650               	/* #APP */
 1651               	 ;  83 "c:/winavr-20100110/lib/gcc/../../avr/include/util/delay_basic.h" 1
 1652 0040 8A95      		1: dec r24
 1653 0042 01F4      		brne 1b
 1654               	 ;  0 "" 2
 1655               	/* #NOAPP */
 1656 0044 C0E0      		ldi r28,lo8(col_pin)
 1657 0046 D0E0      		ldi r29,hi8(col_pin)
 1658 0048 00E0      		ldi r16,lo8(col_bit)
 1659 004a 10E0      		ldi r17,hi8(col_bit)
 1660 004c FE2C      		mov r15,r14
 1661               	.LVL88:
 1662               	.L163:
 1663               	.LBE74:
 1664               	.LBE75:
 1665               	.LBE76:
 1666               	.LBE77:
 1667               	.LSM290:
 1668 004e E881      		ld r30,Y
 1669 0050 F981      		ldd r31,Y+1
 1670 0052 8081      		ld r24,Z
 1671               	.LVL89:
 1672 0054 F801      		movw r30,r16
 1673 0056 9081      		ld r25,Z
 1674 0058 8923      		and r24,r25
 1675 005a EF2D      		mov r30,r15
 1676 005c F0E0      		ldi r31,lo8(0)
 1677               	.LVL90:
 1678 005e 01F4      		brne .L161
 1679               	.LVL91:
 1680               	.LSM291:
 1681 0060 E050      		subi r30,lo8(-(pressed))
 1682 0062 F040      		sbci r31,hi8(-(pressed))
 1683               	.LVL92:
 1684 0064 8081      		ld r24,Z
 1685 0066 8823      		tst r24
 1686 0068 01F4      		brne .L162
 1687               	.LSM292:
 1688 006a 8F2D      		mov r24,r15
 1689 006c 0E94 0000 		call key_press
 1690               	.LVL93:
 1691 0070 00C0      		rjmp .L162
 1692               	.LVL94:
 1693               	.L161:
 1694               	.LSM293:
 1695 0072 E050      		subi r30,lo8(-(pressed))
 1696 0074 F040      		sbci r31,hi8(-(pressed))
 1697               	.LVL95:
 1698 0076 8081      		ld r24,Z
 1699 0078 8823      		tst r24
 1700 007a 01F0      		breq .L162
 1701               	.LSM294:
 1702 007c 8F2D      		mov r24,r15
 1703 007e 0E94 0000 		call key_release
 1704               	.LVL96:
 1705               	.L162:
 1706 0082 2296      		adiw r28,2
 1707 0084 0F5F      		subi r16,lo8(-(1))
 1708 0086 1F4F      		sbci r17,hi8(-(1))
 1709 0088 F5E0      		ldi r31,lo8(5)
 1710               	.LVL97:
 1711 008a FF0E      		add r15,r31
 1712               	.LSM295:
 1713 008c 80E0      		ldi r24,hi8(col_pin+24)
 1714 008e C030      		cpi r28,lo8(col_pin+24)
 1715 0090 D807      		cpc r29,r24
 1716 0092 01F4      		brne .L163
 1717               	.LSM296:
 1718 0094 D501      		movw r26,r10
 1719 0096 ED91      		ld r30,X+
 1720 0098 FD91      		ld r31,X+
 1721 009a 5D01      		movw r10,r26
 1722 009c 8081      		ld r24,Z
 1723 009e D601      		movw r26,r12
 1724 00a0 9D91      		ld r25,X+
 1725 00a2 6D01      		movw r12,r26
 1726 00a4 892B      		or r24,r25
 1727 00a6 8083      		st Z,r24
 1728               	.LSM297:
 1729 00a8 E394      		inc r14
 1730               	.LVL98:
 1731 00aa B5E0      		ldi r27,lo8(5)
 1732 00ac EB16      		cp r14,r27
 1733 00ae 01F0      		breq .+2
 1734 00b0 00C0      		rjmp .L164
 1735               	.LSM298:
 1736 00b2 8091 0000 		lds r24,keyboard_leds
 1737 00b6 2091 0000 		lds r18,caps_lock_led
 1738 00ba 30E0      		ldi r19,lo8(0)
 1739 00bc 90E0      		ldi r25,lo8(0)
 1740 00be 8270      		andi r24,lo8(2)
 1741 00c0 9070      		andi r25,hi8(2)
 1742 00c2 2817      		cp r18,r24
 1743 00c4 3907      		cpc r19,r25
 1744 00c6 01F0      		breq .L165
 1745               	.LSM299:
 1746 00c8 0E94 0000 		call caps_lock_change_layer
 1747               	.L165:
 1748               	.LSM300:
 1749 00cc 0E94 0000 		call repeat_tick
 1750               	.LBB78:
 1751               	.LBB79:
 1752               	.LBB80:
 1753               	.LBB81:
 1754               	.LSM301:
 1755 00d0 80E2      		ldi r24,lo8(20000)
 1756 00d2 9EE4      		ldi r25,hi8(20000)
 1757               	.LVL99:
 1758               	/* #APP */
 1759               	 ;  105 "c:/winavr-20100110/lib/gcc/../../avr/include/util/delay_basic.h" 1
 1760 00d4 0197      		1: sbiw r24,1
 1761 00d6 01F4      		brne 1b
 1762               	 ;  0 "" 2
 1763               	/* epilogue start */
 1764               	/* #NOAPP */
 1765               	.LBE81:
 1766               	.LBE80:
 1767               	.LBE79:
 1768               	.LBE78:
 1769               	.LSM302:
 1770 00d8 DF91      		pop r29
 1771 00da CF91      		pop r28
 1772 00dc 1F91      		pop r17
 1773 00de 0F91      		pop r16
 1774 00e0 FF90      		pop r15
 1775 00e2 EF90      		pop r14
 1776               	.LVL100:
 1777 00e4 DF90      		pop r13
 1778 00e6 CF90      		pop r12
 1779 00e8 BF90      		pop r11
 1780 00ea AF90      		pop r10
 1781 00ec 9F90      		pop r9
 1782 00ee 0895      		ret
 1783               	.LFE9:
 1785               		.section	.text.init,"ax",@progbits
 1786               	.global	init
 1788               	init:
 1789               	.LFB8:
 1790               	.LSM303:
 1791               	/* prologue: function */
 1792               	/* frame size = 0 */
 1793               	.LSM304:
 1794 0000 80E8      		ldi r24,lo8(-128)
 1795 0002 8093 6100 		sts 97,r24
 1796 0006 1092 6100 		sts 97,__zero_reg__
 1797               	.LSM305:
 1798 000a 0E94 0000 		call init_ports
 1799               	.LSM306:
 1800 000e 569A      		sbi 42-32,6
 1801               	.LSM307:
 1802 0010 3E9A      		sbi 39-32,6
 1803               	.LSM308:
 1804 0012 519A      		sbi 42-32,1
 1805               	.LSM309:
 1806 0014 469A      		sbi 40-32,6
 1807               	.LSM310:
 1808 0016 5998      		cbi 43-32,1
 1809               	.LSM311:
 1810 0018 8091 0000 		lds r24,led
 1811 001c 8823      		tst r24
 1812 001e 01F4      		brne .L170
 1813               	.L172:
 1814 0020 E0E0      		ldi r30,lo8(pressed)
 1815 0022 F0E0      		ldi r31,hi8(pressed)
 1816 0024 00C0      		rjmp .L171
 1817               	.L170:
 1818 0026 5E98      		cbi 43-32,6
 1819 0028 00C0      		rjmp .L172
 1820               	.L171:
 1821               	.LBB82:
 1822               	.LSM312:
 1823 002a 1192      		st Z+,__zero_reg__
 1824               	.LSM313:
 1825 002c 80E0      		ldi r24,hi8(pressed+60)
 1826 002e E030      		cpi r30,lo8(pressed+60)
 1827 0030 F807      		cpc r31,r24
 1828 0032 01F4      		brne .L171
 1829               	.LBE82:
 1830               	.LSM314:
 1831 0034 0E94 0000 		call usb_init
 1832               	.L173:
 1833               	.LSM315:
 1834 0038 0E94 0000 		call usb_configured
 1835 003c 8823      		tst r24
 1836 003e 01F0      		breq .L173
 1837               	.LSM316:
 1838 0040 5E9A      		sbi 43-32,6
 1839               	.LSM317:
 1840 0042 8091 0000 		lds r24,led
 1841 0046 8111      		cpse r24,__zero_reg__
 1842 0048 4698      		cbi 40-32,6
 1843               	.L174:
 1844               	.LSM318:
 1845 004a 8091 0000 		lds r24,keyboard_leds
 1846 004e 8093 0000 		sts caps_lock_led,r24
 1847               	/* epilogue start */
 1848               	.LSM319:
 1849 0052 0895      		ret
 1850               	.LFE8:
 1852               		.section	.text.main,"ax",@progbits
 1853               	.global	main
 1855               	main:
 1856               	.LFB7:
 1857               	.LSM320:
 1858               	/* prologue: function */
 1859               	/* frame size = 0 */
 1860               	.LSM321:
 1861 0000 84B7      		in r24,84-32
 1862 0002 877F      		andi r24,lo8(-9)
 1863 0004 84BF      		out 84-32,r24
 1864               	.LSM322:
 1865 0006 88E1      		ldi r24,lo8(24)
 1866               	/* #APP */
 1867               	 ;  171 "catboard.c" 1
 1868 0008 0FB6      		in __tmp_reg__, __SREG__
 1869 000a F894      		cli
 1870 000c 8093 6000 		sts 96, r24
 1871 0010 1092 6000 		sts 96, __zero_reg__
 1872 0014 0FBE      		out __SREG__,__tmp_reg__
 1873               		
 1874               	 ;  0 "" 2
 1875               	/* #NOAPP */
 1876               	.LBB83:
 1877               	.LSM323:
 1878 0016 80E0      		ldi r24,lo8(0)
 1879 0018 90E0      		ldi r25,hi8(0)
 1880 001a 20E8      		ldi r18,lo8(-128)
 1881               	/* #APP */
 1882               	 ;  174 "catboard.c" 1
 1883 001c 0FB6      		in __tmp_reg__,__SREG__
 1884 001e F894      		cli
 1885 0020 2093 6100 		sts 97, r18
 1886 0024 8093 6100 		sts 97, r24
 1887 0028 0FBE      		out __SREG__, __tmp_reg__
 1888               	 ;  0 "" 2
 1889               	/* #NOAPP */
 1890               	.LBE83:
 1891               	.LSM324:
 1892 002a 0E94 0000 		call init
 1893               	.L179:
 1894               	.LSM325:
 1895 002e 0E94 0000 		call poll
 1896 0032 00C0      		rjmp .L179
 1897               	.LFE7:
 1899               	.global	layer2
 1900               		.data
 1903               	layer2:
 1904 0000 35        		.byte	53
 1905 0001 2B        		.byte	43
 1906 0002 69        		.byte	105
 1907 0003 7D        		.byte	125
 1908 0004 29        		.byte	41
 1909 0005 1E        		.byte	30
 1910 0006 14        		.byte	20
 1911 0007 04        		.byte	4
 1912 0008 68        		.byte	104
 1913 0009 6D        		.byte	109
 1914 000a 1F        		.byte	31
 1915 000b 1A        		.byte	26
 1916 000c 16        		.byte	22
 1917 000d 1B        		.byte	27
 1918 000e 1D        		.byte	29
 1919 000f 20        		.byte	32
 1920 0010 08        		.byte	8
 1921 0011 07        		.byte	7
 1922 0012 06        		.byte	6
 1923 0013 67        		.byte	103
 1924 0014 21        		.byte	33
 1925 0015 15        		.byte	21
 1926 0016 09        		.byte	9
 1927 0017 19        		.byte	25
 1928 0018 65        		.byte	101
 1929 0019 22        		.byte	34
 1930 001a 17        		.byte	23
 1931 001b 0A        		.byte	10
 1932 001c 05        		.byte	5
 1933 001d 77        		.byte	119
 1934 001e 23        		.byte	35
 1935 001f 1C        		.byte	28
 1936 0020 0B        		.byte	11
 1937 0021 11        		.byte	17
 1938 0022 2C        		.byte	44
 1939 0023 24        		.byte	36
 1940 0024 18        		.byte	24
 1941 0025 0D        		.byte	13
 1942 0026 10        		.byte	16
 1943 0027 7F        		.byte	127
 1944 0028 25        		.byte	37
 1945 0029 0C        		.byte	12
 1946 002a 0E        		.byte	14
 1947 002b 36        		.byte	54
 1948 002c 6B        		.byte	107
 1949 002d 26        		.byte	38
 1950 002e 12        		.byte	18
 1951 002f 0F        		.byte	15
 1952 0030 37        		.byte	55
 1953 0031 38        		.byte	56
 1954 0032 27        		.byte	39
 1955 0033 13        		.byte	19
 1956 0034 33        		.byte	51
 1957 0035 31        		.byte	49
 1958 0036 6E        		.byte	110
 1959 0037 2D        		.byte	45
 1960 0038 2F        		.byte	47
 1961 0039 34        		.byte	52
 1962 003a 30        		.byte	48
 1963 003b 2E        		.byte	46
 1964               	.global	row_port
 1967               	row_port:
 1968 003c 2800      		.word	40
 1969 003e 2B00      		.word	43
 1970 0040 2500      		.word	37
 1971 0042 2500      		.word	37
 1972 0044 2500      		.word	37
 1973               	.global	row_bit
 1976               	row_bit:
 1977 0046 20        		.byte	32
 1978 0047 04        		.byte	4
 1979 0048 40        		.byte	64
 1980 0049 08        		.byte	8
 1981 004a 02        		.byte	2
 1982               	.global	col_pin
 1985               	col_pin:
 1986 004b 2900      		.word	41
 1987 004d 2900      		.word	41
 1988 004f 2900      		.word	41
 1989 0051 2300      		.word	35
 1990 0053 2600      		.word	38
 1991 0055 2900      		.word	41
 1992 0057 2300      		.word	35
 1993 0059 2600      		.word	38
 1994 005b 2300      		.word	35
 1995 005d 2300      		.word	35
 1996 005f 2600      		.word	38
 1997 0061 2300      		.word	35
 1998               	.global	col_bit
 2001               	col_bit:
 2002 0063 08        		.byte	8
 2003 0064 01        		.byte	1
 2004 0065 10        		.byte	16
 2005 0066 01        		.byte	1
 2006 0067 04        		.byte	4
 2007 0068 20        		.byte	32
 2008 0069 10        		.byte	16
 2009 006a 10        		.byte	16
 2010 006b 04        		.byte	4
 2011 006c 20        		.byte	32
 2012 006d 80        		.byte	-128
 2013 006e 80        		.byte	-128
 2014               	.global	layer1
 2017               	layer1:
 2018 006f 35        		.byte	53
 2019 0070 2B        		.byte	43
 2020 0071 69        		.byte	105
 2021 0072 7D        		.byte	125
 2022 0073 29        		.byte	41
 2023 0074 1E        		.byte	30
 2024 0075 14        		.byte	20
 2025 0076 04        		.byte	4
 2026 0077 68        		.byte	104
 2027 0078 6D        		.byte	109
 2028 0079 1F        		.byte	31
 2029 007a 1A        		.byte	26
 2030 007b 16        		.byte	22
 2031 007c 1B        		.byte	27
 2032 007d 1D        		.byte	29
 2033 007e 20        		.byte	32
 2034 007f 08        		.byte	8
 2035 0080 07        		.byte	7
 2036 0081 06        		.byte	6
 2037 0082 67        		.byte	103
 2038 0083 21        		.byte	33
 2039 0084 15        		.byte	21
 2040 0085 09        		.byte	9
 2041 0086 19        		.byte	25
 2042 0087 65        		.byte	101
 2043 0088 22        		.byte	34
 2044 0089 17        		.byte	23
 2045 008a 0A        		.byte	10
 2046 008b 05        		.byte	5
 2047 008c 77        		.byte	119
 2048 008d 23        		.byte	35
 2049 008e 1C        		.byte	28
 2050 008f 0B        		.byte	11
 2051 0090 11        		.byte	17
 2052 0091 2C        		.byte	44
 2053 0092 24        		.byte	36
 2054 0093 18        		.byte	24
 2055 0094 0D        		.byte	13
 2056 0095 10        		.byte	16
 2057 0096 7F        		.byte	127
 2058 0097 25        		.byte	37
 2059 0098 0C        		.byte	12
 2060 0099 0E        		.byte	14
 2061 009a 36        		.byte	54
 2062 009b 6B        		.byte	107
 2063 009c 26        		.byte	38
 2064 009d 12        		.byte	18
 2065 009e 0F        		.byte	15
 2066 009f 37        		.byte	55
 2067 00a0 38        		.byte	56
 2068 00a1 27        		.byte	39
 2069 00a2 13        		.byte	19
 2070 00a3 33        		.byte	51
 2071 00a4 31        		.byte	49
 2072 00a5 6E        		.byte	110
 2073 00a6 2D        		.byte	45
 2074 00a7 2F        		.byte	47
 2075 00a8 34        		.byte	52
 2076 00a9 30        		.byte	48
 2077 00aa 2E        		.byte	46
 2078               	.global	layer_fn
 2081               	layer_fn:
 2082 00ab 46        		.byte	70
 2083 00ac 2B        		.byte	43
 2084 00ad 69        		.byte	105
 2085 00ae 7D        		.byte	125
 2086 00af 7B        		.byte	123
 2087 00b0 3A        		.byte	58
 2088 00b1 00        		.byte	0
 2089 00b2 00        		.byte	0
 2090 00b3 68        		.byte	104
 2091 00b4 6D        		.byte	109
 2092 00b5 3B        		.byte	59
 2093 00b6 00        		.byte	0
 2094 00b7 00        		.byte	0
 2095 00b8 00        		.byte	0
 2096 00b9 00        		.byte	0
 2097 00ba 3C        		.byte	60
 2098 00bb 00        		.byte	0
 2099 00bc 00        		.byte	0
 2100 00bd 00        		.byte	0
 2101 00be 67        		.byte	103
 2102 00bf 3D        		.byte	61
 2103 00c0 00        		.byte	0
 2104 00c1 00        		.byte	0
 2105 00c2 00        		.byte	0
 2106 00c3 65        		.byte	101
 2107 00c4 3E        		.byte	62
 2108 00c5 35        		.byte	53
 2109 00c6 76        		.byte	118
 2110 00c7 00        		.byte	0
 2111 00c8 77        		.byte	119
 2112 00c9 3F        		.byte	63
 2113 00ca 79        		.byte	121
 2114 00cb 28        		.byte	40
 2115 00cc 2A        		.byte	42
 2116 00cd 7C        		.byte	124
 2117 00ce 40        		.byte	64
 2118 00cf 4A        		.byte	74
 2119 00d0 50        		.byte	80
 2120 00d1 4C        		.byte	76
 2121 00d2 7F        		.byte	127
 2122 00d3 41        		.byte	65
 2123 00d4 52        		.byte	82
 2124 00d5 51        		.byte	81
 2125 00d6 49        		.byte	73
 2126 00d7 7E        		.byte	126
 2127 00d8 42        		.byte	66
 2128 00d9 4D        		.byte	77
 2129 00da 4F        		.byte	79
 2130 00db 00        		.byte	0
 2131 00dc 00        		.byte	0
 2132 00dd 43        		.byte	67
 2133 00de 4B        		.byte	75
 2134 00df 4E        		.byte	78
 2135 00e0 00        		.byte	0
 2136 00e1 7A        		.byte	122
 2137 00e2 44        		.byte	68
 2138 00e3 29        		.byte	41
 2139 00e4 48        		.byte	72
 2140 00e5 47        		.byte	71
 2141 00e6 45        		.byte	69
 2142               	.global	layer_fnlock
 2145               	layer_fnlock:
 2146 00e7 35        		.byte	53
 2147 00e8 2B        		.byte	43
 2148 00e9 69        		.byte	105
 2149 00ea 7D        		.byte	125
 2150 00eb 29        		.byte	41
 2151 00ec 1E        		.byte	30
 2152 00ed 14        		.byte	20
 2153 00ee 04        		.byte	4
 2154 00ef 68        		.byte	104
 2155 00f0 6A        		.byte	106
 2156 00f1 1F        		.byte	31
 2157 00f2 1A        		.byte	26
 2158 00f3 16        		.byte	22
 2159 00f4 1B        		.byte	27
 2160 00f5 1D        		.byte	29
 2161 00f6 20        		.byte	32
 2162 00f7 08        		.byte	8
 2163 00f8 07        		.byte	7
 2164 00f9 06        		.byte	6
 2165 00fa 67        		.byte	103
 2166 00fb 21        		.byte	33
 2167 00fc 15        		.byte	21
 2168 00fd 09        		.byte	9
 2169 00fe 19        		.byte	25
 2170 00ff 65        		.byte	101
 2171 0100 22        		.byte	34
 2172 0101 17        		.byte	23
 2173 0102 0A        		.byte	10
 2174 0103 05        		.byte	5
 2175 0104 2C        		.byte	44
 2176 0105 23        		.byte	35
 2177 0106 1C        		.byte	28
 2178 0107 0B        		.byte	11
 2179 0108 11        		.byte	17
 2180 0109 2C        		.byte	44
 2181 010a 24        		.byte	36
 2182 010b 18        		.byte	24
 2183 010c 0D        		.byte	13
 2184 010d 10        		.byte	16
 2185 010e 7F        		.byte	127
 2186 010f 25        		.byte	37
 2187 0110 0C        		.byte	12
 2188 0111 0E        		.byte	14
 2189 0112 36        		.byte	54
 2190 0113 6B        		.byte	107
 2191 0114 26        		.byte	38
 2192 0115 12        		.byte	18
 2193 0116 0F        		.byte	15
 2194 0117 37        		.byte	55
 2195 0118 38        		.byte	56
 2196 0119 27        		.byte	39
 2197 011a 13        		.byte	19
 2198 011b 33        		.byte	51
 2199 011c 31        		.byte	49
 2200 011d 66        		.byte	102
 2201 011e 2D        		.byte	45
 2202 011f 2F        		.byte	47
 2203 0120 34        		.byte	52
 2204 0121 30        		.byte	48
 2205 0122 2E        		.byte	46
 2206               	.global	os_mode
 2209               	os_mode:
 2210 0123 01        		.byte	1
 2211               	.global	caps_lock_led
 2212               	.global	caps_lock_led
 2213               		.section .bss
 2216               	caps_lock_led:
 2217 0000 00        		.skip 1,0
 2218               	.global	disable_key_my_shift
 2219               	.global	disable_key_my_shift
 2222               	disable_key_my_shift:
 2223 0001 00        		.skip 1,0
 2224               	.global	layout
 2225               		.data
 2228               	layout:
 2229 0124 0000      		.word	layer2
 2230               	.global	queue
 2233               	queue:
 2234 0126 FF        		.byte	-1
 2235 0127 FF        		.byte	-1
 2236 0128 FF        		.byte	-1
 2237 0129 FF        		.byte	-1
 2238 012a FF        		.byte	-1
 2239 012b FF        		.byte	-1
 2240 012c FF        		.byte	-1
 2241               	.global	mod_keys
 2242               	.global	mod_keys
 2243               		.section .bss
 2246               	mod_keys:
 2247 0002 00        		.skip 1,0
 2248               	.global	prev_layer
 2249               	.global	prev_layer
 2252               	prev_layer:
 2253 0003 0000      		.skip 2,0
 2254               	.global	turbo_repeat
 2255               	.global	turbo_repeat
 2258               	turbo_repeat:
 2259 0005 00        		.skip 1,0
 2260               	.global	locked
 2261               	.global	locked
 2264               	locked:
 2265 0006 00        		.skip 1,0
 2266               	.global	led
 2267               		.data
 2270               	led:
 2271 012d 01        		.byte	1
 2272               	.global	last_key
 2275               	last_key:
 2276 012e FF        		.byte	-1
 2277               	.global	press_time
 2278               	.global	press_time
 2279               		.section .bss
 2282               	press_time:
 2283 0007 0000      		.skip 2,0
 2284               	.global	press_time2
 2285               	.global	press_time2
 2288               	press_time2:
 2289 0009 0000      		.skip 2,0
 2290               	.global	release_time
 2291               	.global	release_time
 2294               	release_time:
 2295 000b 0000      		.skip 2,0
 2296               	.global	repeat_time
 2297               	.global	repeat_time
 2300               	repeat_time:
 2301 000d 0000      		.skip 2,0
 2302               		.comm pressed,60,1
 2431               	.Letext0:
DEFINED SYMBOLS
                            *ABS*:00000000 catboard.c
C:\Users\Leo\AppData\Local\Temp/ccDbhnd0.s:2      *ABS*:0000003f __SREG__
C:\Users\Leo\AppData\Local\Temp/ccDbhnd0.s:3      *ABS*:0000003e __SP_H__
C:\Users\Leo\AppData\Local\Temp/ccDbhnd0.s:4      *ABS*:0000003d __SP_L__
C:\Users\Leo\AppData\Local\Temp/ccDbhnd0.s:5      *ABS*:00000034 __CCP__
C:\Users\Leo\AppData\Local\Temp/ccDbhnd0.s:6      *ABS*:00000000 __tmp_reg__
C:\Users\Leo\AppData\Local\Temp/ccDbhnd0.s:7      *ABS*:00000001 __zero_reg__
C:\Users\Leo\AppData\Local\Temp/ccDbhnd0.s:19     .text.init_ports:00000000 init_ports
C:\Users\Leo\AppData\Local\Temp/ccDbhnd0.s:44     .text.caps_lock_change_layer:00000000 caps_lock_change_layer
C:\Users\Leo\AppData\Local\Temp/ccDbhnd0.s:2216   .bss:00000000 caps_lock_led
C:\Users\Leo\AppData\Local\Temp/ccDbhnd0.s:2228   .data:00000124 layout
C:\Users\Leo\AppData\Local\Temp/ccDbhnd0.s:2017   .data:0000006f layer1
C:\Users\Leo\AppData\Local\Temp/ccDbhnd0.s:2081   .data:000000ab layer_fn
C:\Users\Leo\AppData\Local\Temp/ccDbhnd0.s:2252   .bss:00000003 prev_layer
C:\Users\Leo\AppData\Local\Temp/ccDbhnd0.s:2270   .data:0000012d led
C:\Users\Leo\AppData\Local\Temp/ccDbhnd0.s:1903   .data:00000000 layer2
C:\Users\Leo\AppData\Local\Temp/ccDbhnd0.s:117    .text.get_code:00000000 get_code
                            *COM*:0000003c pressed
C:\Users\Leo\AppData\Local\Temp/ccDbhnd0.s:181    .text.restore_leds:00000000 restore_leds
C:\Users\Leo\AppData\Local\Temp/ccDbhnd0.s:223    .text.wait:00000000 wait
C:\Users\Leo\AppData\Local\Temp/ccDbhnd0.s:247    .text.blink_leds:00000000 blink_leds
C:\Users\Leo\AppData\Local\Temp/ccDbhnd0.s:282    .text.send:00000000 send
C:\Users\Leo\AppData\Local\Temp/ccDbhnd0.s:2233   .data:00000126 queue
C:\Users\Leo\AppData\Local\Temp/ccDbhnd0.s:2246   .bss:00000002 mod_keys
C:\Users\Leo\AppData\Local\Temp/ccDbhnd0.s:323    .text.repeat_tick:00000000 repeat_tick
C:\Users\Leo\AppData\Local\Temp/ccDbhnd0.s:2300   .bss:0000000d repeat_time
C:\Users\Leo\AppData\Local\Temp/ccDbhnd0.s:2294   .bss:0000000b release_time
C:\Users\Leo\AppData\Local\Temp/ccDbhnd0.s:2258   .bss:00000005 turbo_repeat
C:\Users\Leo\AppData\Local\Temp/ccDbhnd0.s:2275   .data:0000012e last_key
C:\Users\Leo\AppData\Local\Temp/ccDbhnd0.s:2288   .bss:00000009 press_time2
C:\Users\Leo\AppData\Local\Temp/ccDbhnd0.s:2282   .bss:00000007 press_time
C:\Users\Leo\AppData\Local\Temp/ccDbhnd0.s:474    .text.change_layout:00000000 change_layout
C:\Users\Leo\AppData\Local\Temp/ccDbhnd0.s:2209   .data:00000123 os_mode
C:\Users\Leo\AppData\Local\Temp/ccDbhnd0.s:572    .text.key_release:00000000 key_release
C:\Users\Leo\AppData\Local\Temp/ccDbhnd0.s:990    .text.key_press:00000000 key_press
C:\Users\Leo\AppData\Local\Temp/ccDbhnd0.s:2264   .bss:00000006 locked
C:\Users\Leo\AppData\Local\Temp/ccDbhnd0.s:2145   .data:000000e7 layer_fnlock
C:\Users\Leo\AppData\Local\Temp/ccDbhnd0.s:1594   .text.poll:00000000 poll
C:\Users\Leo\AppData\Local\Temp/ccDbhnd0.s:1967   .data:0000003c row_port
C:\Users\Leo\AppData\Local\Temp/ccDbhnd0.s:1976   .data:00000046 row_bit
C:\Users\Leo\AppData\Local\Temp/ccDbhnd0.s:1985   .data:0000004b col_pin
C:\Users\Leo\AppData\Local\Temp/ccDbhnd0.s:2001   .data:00000063 col_bit
C:\Users\Leo\AppData\Local\Temp/ccDbhnd0.s:1788   .text.init:00000000 init
C:\Users\Leo\AppData\Local\Temp/ccDbhnd0.s:1855   .text.main:00000000 main
C:\Users\Leo\AppData\Local\Temp/ccDbhnd0.s:2222   .bss:00000001 disable_key_my_shift

UNDEFINED SYMBOLS
keyboard_leds
keyboard_keys
keyboard_modifier_keys
usb_keyboard_send
usb_keyboard_press
usb_init
usb_configured
__do_copy_data
__do_clear_bss
